; Function Attrs: mustprogress uwtable
define noundef i32 @_ZNK6icu_778Collator7compareERKNS_13UnicodeStringES3_i(ptr noundef nonnull align 8 dereferenceable(8) %0, ptr noundef nonnull align 8 dereferenceable(64) %1, ptr noundef nonnull align 8 dereferenceable(64) %2, i32 noundef %3) unnamed_addr #5 align 2 {
  %5 = alloca i32, align 4
  call void @llvm.lifetime.start.p0(i64 4, ptr nonnull %5) #16
  store i32 0, ptr %5, align 4, !tbaa !6
  %6 = load ptr, ptr %0, align 8, !tbaa !3
  %7 = getelementptr inbounds nuw i8, ptr %6, i64 72
  %8 = load ptr, ptr %7, align 8
  %9 = call noundef i32 %8(ptr noundef nonnull align 8 dereferenceable(8) %0, ptr noundef nonnull align 8 dereferenceable(64) %1, ptr noundef nonnull align 8 dereferenceable(64) %2, i32 noundef %3, ptr noundef nonnull align 4 dereferenceable(4) %5)
  call void @llvm.lifetime.end.p0(i64 4, ptr nonnull %5) #16
  ret i32 %9
}